; Function Attrs: mustprogress uwtable
define void @_ZN5tsi_t8push_lenEm(ptr noundef nonnull align 8 dereferenceable(912) %0, i64 noundef %1) local_unnamed_addr #3 align 2 {
  %3 = alloca i32, align 4
  %4 = getelementptr inbounds nuw i8, ptr %0, i64 800
  %5 = getelementptr inbounds nuw i8, ptr %0, i64 816
  %6 = getelementptr inbounds nuw i8, ptr %0, i64 752
  br label %8

7:                                                ; preds = %_ZNSt5dequeIjSaIjEE9push_backEOj.exit
  ret void

8:                                                ; preds = %2, %_ZNSt5dequeIjSaIjEE9push_backEOj.exit
  %9 = phi i1 [ true, %2 ], [ false, %_ZNSt5dequeIjSaIjEE9push_backEOj.exit ]
  %.045 = phi i64 [ %1, %2 ], [ %17, %_ZNSt5dequeIjSaIjEE9push_backEOj.exit ]
  call void @llvm.lifetime.start.p0(i64 4, ptr nonnull %3) #17
  %10 = trunc i64 %.045 to i32
  store i32 %10, ptr %3, align 4, !tbaa !101
  %11 = load ptr, ptr %4, align 8, !tbaa !102
  %12 = load ptr, ptr %5, align 8, !tbaa !103
  %13 = getelementptr inbounds i8, ptr %12, i64 -4
  %.not.i.i = icmp eq ptr %11, %13
  br i1 %.not.i.i, label %16, label %14

14:                                               ; preds = %8
  store i32 %10, ptr %11, align 4, !tbaa !101
  %15 = getelementptr inbounds nuw i8, ptr %11, i64 4
  store ptr %15, ptr %4, align 8, !tbaa !102
  br label %_ZNSt5dequeIjSaIjEE9push_backEOj.exit

16:                                               ; preds = %8
  call void @_ZNSt5dequeIjSaIjEE16_M_push_back_auxIJjEEEvDpOT_(ptr noundef nonnull align 8 dereferenceable(80) %6, ptr noundef nonnull align 4 dereferenceable(4) %3)
  br label %_ZNSt5dequeIjSaIjEE9push_backEOj.exit

_ZNSt5dequeIjSaIjEE9push_backEOj.exit:            ; preds = %14, %16
  call void @llvm.lifetime.end.p0(i64 4, ptr nonnull %3) #17
  %17 = lshr i64 %.045, 32
  br i1 %9, label %8, label %7, !llvm.loop !105
}